   1               		.file	"process_leader.c"
   2               	__SP_H__ = 0x3e
   3               	__SP_L__ = 0x3d
   4               	__SREG__ = 0x3f
   5               	__tmp_reg__ = 0
   6               	__zero_reg__ = 1
   7               		.text
   8               	.Ltext0:
   9               		.cfi_sections	.debug_frame
  10               		.section	.text.leader_start,"ax",@progbits
  11               		.weak	leader_start
  13               	leader_start:
  14               	.LFB111:
  15               		.cfi_startproc
  16               	/* prologue: function */
  17               	/* frame size = 0 */
  18               	/* stack size = 0 */
  19               	.L__stack_usage = 0
  20 0000 0895      		ret
  21               		.cfi_endproc
  22               	.LFE111:
  24               		.section	.text.leader_end,"ax",@progbits
  25               		.weak	leader_end
  27               	leader_end:
  28               	.LFB108:
  29               		.file 1 "quantum/process_keycode/process_leader.c"
   1:quantum/process_keycode/process_leader.c **** #include "process_leader.h"
   2:quantum/process_keycode/process_leader.c **** 
   3:quantum/process_keycode/process_leader.c **** __attribute__ ((weak))
   4:quantum/process_keycode/process_leader.c **** void leader_start(void) {}
   5:quantum/process_keycode/process_leader.c **** 
   6:quantum/process_keycode/process_leader.c **** __attribute__ ((weak))
   7:quantum/process_keycode/process_leader.c **** void leader_end(void) {}
  30               		.loc 1 7 0
  31               		.cfi_startproc
  32               	/* prologue: function */
  33               	/* frame size = 0 */
  34               	/* stack size = 0 */
  35               	.L__stack_usage = 0
  36 0000 0895      		ret
  37               		.cfi_endproc
  38               	.LFE108:
  40               		.section	.text.process_leader,"ax",@progbits
  41               	.global	process_leader
  43               	process_leader:
  44               	.LFB109:
   8:quantum/process_keycode/process_leader.c **** 
   9:quantum/process_keycode/process_leader.c **** // Leader key stuff
  10:quantum/process_keycode/process_leader.c **** bool leading = false;
  11:quantum/process_keycode/process_leader.c **** uint16_t leader_time = 0;
  12:quantum/process_keycode/process_leader.c **** 
  13:quantum/process_keycode/process_leader.c **** uint16_t leader_sequence[5] = {0, 0, 0, 0, 0};
  14:quantum/process_keycode/process_leader.c **** uint8_t leader_sequence_size = 0;
  15:quantum/process_keycode/process_leader.c **** 
  16:quantum/process_keycode/process_leader.c **** bool process_leader(uint16_t keycode, keyrecord_t *record) {
  45               		.loc 1 16 0
  46               		.cfi_startproc
  47               	.LVL0:
  48               		.loc 1 16 0
  49 0000 0F93      		push r16
  50               	.LCFI0:
  51               		.cfi_def_cfa_offset 3
  52               		.cfi_offset 16, -2
  53 0002 1F93      		push r17
  54               	.LCFI1:
  55               		.cfi_def_cfa_offset 4
  56               		.cfi_offset 17, -3
  57 0004 CF93      		push r28
  58               	.LCFI2:
  59               		.cfi_def_cfa_offset 5
  60               		.cfi_offset 28, -4
  61               	/* prologue: function */
  62               	/* frame size = 0 */
  63               	/* stack size = 3 */
  64               	.L__stack_usage = 3
  65 0006 8C01      		movw r16,r24
  17:quantum/process_keycode/process_leader.c ****   // Leader key set-up
  18:quantum/process_keycode/process_leader.c ****   if (record->event.pressed) {
  66               		.loc 1 18 0
  67 0008 FB01      		movw r30,r22
  68 000a 8281      		ldd r24,Z+2
  69               	.LVL1:
  70 000c 8111      		cpse r24,__zero_reg__
  71 000e 00C0      		rjmp .L4
  72               	.LVL2:
  73               	.L7:
  19:quantum/process_keycode/process_leader.c ****     if (!leading && keycode == KC_LEAD) {
  20:quantum/process_keycode/process_leader.c ****       leader_start();
  21:quantum/process_keycode/process_leader.c ****       leading = true;
  22:quantum/process_keycode/process_leader.c ****       leader_time = timer_read();
  23:quantum/process_keycode/process_leader.c ****       leader_sequence_size = 0;
  24:quantum/process_keycode/process_leader.c ****       leader_sequence[0] = 0;
  25:quantum/process_keycode/process_leader.c ****       leader_sequence[1] = 0;
  26:quantum/process_keycode/process_leader.c ****       leader_sequence[2] = 0;
  27:quantum/process_keycode/process_leader.c ****       leader_sequence[3] = 0;
  28:quantum/process_keycode/process_leader.c ****       leader_sequence[4] = 0;
  29:quantum/process_keycode/process_leader.c ****       return false;
  30:quantum/process_keycode/process_leader.c ****     }
  31:quantum/process_keycode/process_leader.c ****     if (leading && timer_elapsed(leader_time) < LEADER_TIMEOUT) {
  32:quantum/process_keycode/process_leader.c ****       leader_sequence[leader_sequence_size] = keycode;
  33:quantum/process_keycode/process_leader.c ****       leader_sequence_size++;
  34:quantum/process_keycode/process_leader.c ****       return false;
  35:quantum/process_keycode/process_leader.c ****     }
  36:quantum/process_keycode/process_leader.c ****   }
  37:quantum/process_keycode/process_leader.c ****   return true;
  74               		.loc 1 37 0
  75 0010 C1E0      		ldi r28,lo8(1)
  76               	.L3:
  38:quantum/process_keycode/process_leader.c **** }...
  77               		.loc 1 38 0
  78 0012 8C2F      		mov r24,r28
  79               	/* epilogue start */
  80 0014 CF91      		pop r28
  81 0016 1F91      		pop r17
  82 0018 0F91      		pop r16
  83               	.LVL3:
  84 001a 0895      		ret
  85               	.LVL4:
  86               	.L4:
  19:quantum/process_keycode/process_leader.c ****     if (!leading && keycode == KC_LEAD) {
  87               		.loc 1 19 0
  88 001c C091 0000 		lds r28,leading
  89 0020 C111      		cpse r28,__zero_reg__
  90 0022 00C0      		rjmp .L6
  19:quantum/process_keycode/process_leader.c ****     if (!leading && keycode == KC_LEAD) {
  91               		.loc 1 19 0 is_stmt 0 discriminator 1
  92 0024 0531      		cpi r16,21
  93 0026 1C45      		sbci r17,92
  94 0028 01F4      		brne .L7
  20:quantum/process_keycode/process_leader.c ****       leader_start();
  95               		.loc 1 20 0 is_stmt 1
  96 002a 0E94 0000 		call leader_start
  97               	.LVL5:
  21:quantum/process_keycode/process_leader.c ****       leading = true;
  98               		.loc 1 21 0
  99 002e 81E0      		ldi r24,lo8(1)
 100 0030 8093 0000 		sts leading,r24
  22:quantum/process_keycode/process_leader.c ****       leader_time = timer_read();
 101               		.loc 1 22 0
 102 0034 0E94 0000 		call timer_read
 103               	.LVL6:
 104 0038 9093 0000 		sts leader_time+1,r25
 105 003c 8093 0000 		sts leader_time,r24
  23:quantum/process_keycode/process_leader.c ****       leader_sequence_size = 0;
 106               		.loc 1 23 0
 107 0040 1092 0000 		sts leader_sequence_size,__zero_reg__
  24:quantum/process_keycode/process_leader.c ****       leader_sequence[0] = 0;
 108               		.loc 1 24 0
 109 0044 1092 0000 		sts leader_sequence+1,__zero_reg__
 110 0048 1092 0000 		sts leader_sequence,__zero_reg__
  25:quantum/process_keycode/process_leader.c ****       leader_sequence[1] = 0;
 111               		.loc 1 25 0
 112 004c 1092 0000 		sts leader_sequence+2+1,__zero_reg__
 113 0050 1092 0000 		sts leader_sequence+2,__zero_reg__
  26:quantum/process_keycode/process_leader.c ****       leader_sequence[2] = 0;
 114               		.loc 1 26 0
 115 0054 1092 0000 		sts leader_sequence+4+1,__zero_reg__
 116 0058 1092 0000 		sts leader_sequence+4,__zero_reg__
  27:quantum/process_keycode/process_leader.c ****       leader_sequence[3] = 0;
 117               		.loc 1 27 0
 118 005c 1092 0000 		sts leader_sequence+6+1,__zero_reg__
 119 0060 1092 0000 		sts leader_sequence+6,__zero_reg__
  28:quantum/process_keycode/process_leader.c ****       leader_sequence[4] = 0;
 120               		.loc 1 28 0
 121 0064 1092 0000 		sts leader_sequence+8+1,__zero_reg__
 122 0068 1092 0000 		sts leader_sequence+8,__zero_reg__
  29:quantum/process_keycode/process_leader.c ****       return false;
 123               		.loc 1 29 0
 124 006c 00C0      		rjmp .L3
 125               	.LVL7:
 126               	.L6:
  31:quantum/process_keycode/process_leader.c ****     if (leading && timer_elapsed(leader_time) < LEADER_TIMEOUT) {
 127               		.loc 1 31 0 discriminator 1
 128 006e 8091 0000 		lds r24,leader_time
 129 0072 9091 0000 		lds r25,leader_time+1
 130 0076 0E94 0000 		call timer_elapsed
 131               	.LVL8:
 132 007a 883C      		cpi r24,-56
 133 007c 9105      		cpc r25,__zero_reg__
 134 007e 00F4      		brsh .L7
  32:quantum/process_keycode/process_leader.c ****       leader_sequence[leader_sequence_size] = keycode;
 135               		.loc 1 32 0
 136 0080 8091 0000 		lds r24,leader_sequence_size
 137 0084 E82F      		mov r30,r24
 138 0086 F0E0      		ldi r31,0
 139 0088 EE0F      		lsl r30
 140 008a FF1F      		rol r31
 141 008c E050      		subi r30,lo8(-(leader_sequence))
 142 008e F040      		sbci r31,hi8(-(leader_sequence))
 143 0090 1183      		std Z+1,r17
 144 0092 0083      		st Z,r16
  33:quantum/process_keycode/process_leader.c ****       leader_sequence_size++;
 145               		.loc 1 33 0
 146 0094 8F5F      		subi r24,lo8(-(1))
 147 0096 8093 0000 		sts leader_sequence_size,r24
  34:quantum/process_keycode/process_leader.c ****       return false;
 148               		.loc 1 34 0
 149 009a C0E0      		ldi r28,0
 150 009c 00C0      		rjmp .L3
 151               		.cfi_endproc
 152               	.LFE109:
 154               	.global	leader_sequence_size
 155               		.section	.bss.leader_sequence_size,"aw",@nobits
 158               	leader_sequence_size:
 159 0000 00        		.zero	1
 160               	.global	leader_sequence
 161               		.section	.bss.leader_sequence,"aw",@nobits
 164               	leader_sequence:
 165 0000 0000 0000 		.zero	10
 165      0000 0000 
 165      0000 
 166               	.global	leader_time
 167               		.section	.bss.leader_time,"aw",@nobits
 170               	leader_time:
 171 0000 0000      		.zero	2
 172               	.global	leading
 173               		.section	.bss.leading,"aw",@nobits
 176               	leading:
 177 0000 00        		.zero	1
 178               		.text
 179               	.Letext0:
 180               		.file 2 "/usr/avr/include/stdint.h"
 181               		.file 3 "/usr/lib/gcc/avr/6.3.0/include/stddef.h"
 182               		.file 4 "./tmk_core/common/keyboard.h"
 183               		.file 5 "./tmk_core/common/action.h"
 184               		.file 6 "./tmk_core/protocol/lufa/LUFA-git/LUFA/Drivers/USB/Core/AVR8/../StdRequestType.h"
 185               		.file 7 "./tmk_core/protocol/lufa/LUFA-git/LUFA/Drivers/USB/Core/AVR8/../DeviceStandardReq.h"
 186               		.file 8 "./tmk_core/protocol/lufa/LUFA-git/LUFA/Drivers/USB/Core/USBTask.h"
 187               		.file 9 "./tmk_core/protocol/lufa/LUFA-git/LUFA/Drivers/USB/Core/HostStandardReq.h"
 188               		.file 10 "/usr/avr/include/stdio.h"
 189               		.file 11 "./tmk_core/common/report.h"
 190               		.file 12 "./tmk_core/common/host.h"
 191               		.file 13 "./tmk_core/common/debug.h"
 192               		.file 14 "./quantum/keycode_config.h"
 193               		.file 15 "./quantum/keymap.h"
 194               		.file 16 "./tmk_core/common/action_layer.h"
 195               		.file 17 "./tmk_core/common/timer.h"
 196               		.file 18 "./tmk_core/common/action_util.h"
 197               		.file 19 "/usr/avr/include/stdlib.h"
 198               		.file 20 "./quantum/quantum_keycodes.h"
 199               		.file 21 "./quantum/process_keycode/process_unicode_common.h"